target datalayout = "e-m:e-p270:32:32-p271:32:32-p272:64:64-i64:64-i128:128-f80:128-n8:16:32:64-S128"
target triple = "x86_64-pc-linux-gnu"

%class.nmethod = type <{ %class.CodeBlob.base, [2 x i8], i64, i64, ptr, %union.anon, ptr, ptr, ptr, ptr, ptr, ptr, ptr, i16, i16, i32, i32, i32, i32, i32, i32, i32, i16, i16, i16, i16, i16, i16, i32, i32, i32, i32, i32, i8, i8, i8, i8, i8, i8, [2 x i8] }>
%class.CodeBlob.base = type <{ ptr, ptr, ptr, i32, i32, i32, i32, i32, i32, i16, i16, i8, i8 }>
%union.anon = type { ptr }
%class.BarrierSet = type { ptr, %class.FakeRttiSupport, ptr, ptr, ptr, ptr, ptr }
%class.FakeRttiSupport = type <{ i64, i32, [4 x i8] }>
%"struct.Atomic::StoreImpl.69" = type { i8 }
%"struct.Atomic::PlatformStore.70" = type { i8 }

@_ZN10BarrierSet12_barrier_setE = external global ptr, align 8

; Function Attrs: mustprogress nounwind uwtable
define linkonce_odr hidden void @_ZNK6Atomic13PlatformStoreILm8EEclImEEvPVT_S3_(ptr noundef nonnull align 1 dereferenceable(1) %0, ptr noundef %1, i64 noundef %2) #1 comdat align 2 {
  %4 = alloca ptr, align 8
  %5 = alloca ptr, align 8
  %6 = alloca i64, align 8
  store ptr %0, ptr %4, align 8
  store ptr %1, ptr %5, align 8
  store i64 %2, ptr %6, align 8
  %7 = load i64, ptr %6, align 8
  %8 = load ptr, ptr %5, align 8
  store volatile i64 %7, ptr %8, align 8
  ret void
}

; Function Attrs: mustprogress nounwind uwtable
define linkonce_odr hidden void @_ZNK6Atomic9StoreImplImmNS_13PlatformStoreILm8EEEvEclEPVmm(ptr noundef nonnull align 1 dereferenceable(1) %0, ptr noundef %1, i64 noundef %2) #1 comdat align 2 {
  %4 = alloca ptr, align 8
  %5 = alloca ptr, align 8
  %6 = alloca i64, align 8
  %7 = alloca %"struct.Atomic::PlatformStore.70", align 1
  store ptr %0, ptr %4, align 8
  store ptr %1, ptr %5, align 8
  store i64 %2, ptr %6, align 8
  %8 = load ptr, ptr %5, align 8
  %9 = load i64, ptr %6, align 8
  call void @_ZNK6Atomic13PlatformStoreILm8EEclImEEvPVT_S3_(ptr noundef nonnull align 1 dereferenceable(1) %7, ptr noundef %8, i64 noundef %9)
  ret void
}

; Function Attrs: mustprogress nounwind uwtable
define linkonce_odr hidden void @_ZN6Atomic5storeImmEEvPVT_T0_(ptr noundef %0, i64 noundef %1) #1 comdat align 2 {
  %3 = alloca ptr, align 8
  %4 = alloca i64, align 8
  %5 = alloca %"struct.Atomic::StoreImpl.69", align 1
  store ptr %0, ptr %3, align 8
  store i64 %1, ptr %4, align 8
  %6 = load ptr, ptr %3, align 8
  %7 = load i64, ptr %4, align 8
  call void @_ZNK6Atomic9StoreImplImmNS_13PlatformStoreILm8EEEvEclEPVmm(ptr noundef nonnull align 1 dereferenceable(1) %5, ptr noundef %6, i64 noundef %7)
  ret void
}

; Function Attrs: mustprogress nounwind uwtable
define linkonce_odr hidden noundef ptr @_ZN10BarrierSet19barrier_set_nmethodEv(ptr noundef nonnull align 8 dereferenceable(64) %0) #1 comdat align 2 {
  %2 = alloca ptr, align 8
  store ptr %0, ptr %2, align 8
  %3 = load ptr, ptr %2, align 8
  %4 = getelementptr inbounds %class.BarrierSet, ptr %3, i32 0, i32 5
  %5 = load ptr, ptr %4, align 8
  ret ptr %5
}

; Function Attrs: mustprogress nounwind uwtable
define linkonce_odr hidden noundef ptr @_ZN10BarrierSet11barrier_setEv() #1 comdat align 2 {
  %1 = load ptr, ptr @_ZN10BarrierSet12_barrier_setE, align 8
  ret ptr %1
}

; Function Attrs: mustprogress nounwind uwtable
define hidden void @_ZN7nmethod22mark_as_maybe_on_stackEv(ptr noundef nonnull align 8 dereferenceable(214) %0) #1 align 2 {
  %2 = alloca ptr, align 8
  store ptr %0, ptr %2, align 8
  %3 = load ptr, ptr %2, align 8
  %4 = getelementptr inbounds %class.nmethod, ptr %3, i32 0, i32 3
  %5 = call noundef i64 @_ZN9CodeCache8gc_epochEv()
  call void @_ZN6Atomic5storeImmEEvPVT_T0_(ptr noundef %4, i64 noundef %5)
  ret void
}

; Function Attrs: mustprogress nounwind uwtable
define linkonce_odr hidden void @_ZN7nmethod7oops_doEP10OopClosure(ptr noundef nonnull align 8 dereferenceable(214) %0, ptr noundef %1) #1 comdat align 2 {
  %3 = alloca ptr, align 8
  %4 = alloca ptr, align 8
  store ptr %0, ptr %3, align 8
  store ptr %1, ptr %4, align 8
  %5 = load ptr, ptr %3, align 8
  %6 = load ptr, ptr %4, align 8
  call void @_ZN7nmethod7oops_doEP10OopClosureb(ptr noundef nonnull align 8 dereferenceable(214) %5, ptr noundef %6, i1 noundef zeroext false)
  ret void
}

; Function Attrs: mustprogress nounwind uwtable
define hidden void @_ZN7nmethod14follow_nmethodEP17OopIterateClosure(ptr noundef nonnull align 8 dereferenceable(214) %0, ptr noundef %1) #1 align 2 {
  %3 = alloca ptr, align 8
  %4 = alloca ptr, align 8
  %5 = alloca ptr, align 8
  store ptr %0, ptr %3, align 8
  store ptr %1, ptr %4, align 8
  %6 = load ptr, ptr %3, align 8
  %7 = load ptr, ptr %4, align 8
  call void @_ZN7nmethod7oops_doEP10OopClosure(ptr noundef nonnull align 8 dereferenceable(214) %6, ptr noundef %7)
  call void @_ZN7nmethod22mark_as_maybe_on_stackEv(ptr noundef nonnull align 8 dereferenceable(214) %6)
  %8 = call noundef ptr @_ZN10BarrierSet11barrier_setEv()
  %9 = call noundef ptr @_ZN10BarrierSet19barrier_set_nmethodEv(ptr noundef nonnull align 8 dereferenceable(64) %8)
  store ptr %9, ptr %5, align 8
  %10 = load ptr, ptr %5, align 8
  call void @_ZN17BarrierSetNMethod6disarmEP7nmethod(ptr noundef nonnull align 8 dereferenceable(12) %10, ptr noundef %6)
  ret void
}