; Function Attrs: mustprogress nounwind uwtable
define hidden void @_ZN7nmethod14follow_nmethodEP17OopIterateClosure(ptr noundef nonnull align 8 dereferenceable(214) %0, ptr noundef %1) local_unnamed_addr #0 align 2 {
  tail call void @_ZN7nmethod7oops_doEP10OopClosureb(ptr noundef nonnull align 8 dereferenceable(214) %0, ptr noundef %1, i1 zeroext poison)
  %3 = getelementptr inbounds i8, ptr %0, i64 64
  %4 = tail call noundef i64 @_ZN9CodeCache8gc_epochEv() #23
  store volatile i64 %4, ptr %3, align 8
  %5 = load ptr, ptr @_ZN10BarrierSet12_barrier_setE, align 8
  %6 = getelementptr inbounds i8, ptr %5, i64 48
  %7 = load ptr, ptr %6, align 8
  tail call void @_ZN17BarrierSetNMethod6disarmEP7nmethod(ptr noundef nonnull align 8 dereferenceable(12) %7, ptr noundef nonnull %0) #23
  ret void
}